target datalayout = "e-m:e-p270:32:32-p271:32:32-p272:64:64-i64:64-i128:128-f80:128-n8:16:32:64-S128"
target triple = "x86_64-pc-linux-gnu"

%"class.ncnn::DataReader" = type { ptr }
%"class.ncnn::DataReaderFromMemory" = type { %"class.ncnn::DataReader", ptr }
%"class.ncnn::DataReaderFromMemoryPrivate" = type { ptr }

; Function Attrs: mustprogress nounwind uwtable
define hidden noundef i64 @_ZNK4ncnn20DataReaderFromMemory4readEPvm(ptr noundef nonnull align 8 dereferenceable(16) %0, ptr noundef %1, i64 noundef %2) unnamed_addr #0 align 2 {
  %4 = alloca ptr, align 8
  %5 = alloca ptr, align 8
  %6 = alloca i64, align 8
  store ptr %0, ptr %4, align 8, !tbaa !25
  store ptr %1, ptr %5, align 8, !tbaa !11
  store i64 %2, ptr %6, align 8, !tbaa !12
  %7 = load ptr, ptr %4, align 8
  %8 = load ptr, ptr %5, align 8, !tbaa !11
  %9 = getelementptr inbounds nuw %"class.ncnn::DataReaderFromMemory", ptr %7, i32 0, i32 1
  %10 = load ptr, ptr %9, align 8, !tbaa !29
  %11 = getelementptr inbounds nuw %"class.ncnn::DataReaderFromMemoryPrivate", ptr %10, i32 0, i32 0
  %12 = load ptr, ptr %11, align 8, !tbaa !32
  %13 = load ptr, ptr %12, align 8, !tbaa !9
  %14 = load i64, ptr %6, align 8, !tbaa !12
  call void @llvm.memcpy.p0.p0.i64(ptr align 1 %8, ptr align 1 %13, i64 %14, i1 false)
  %15 = load i64, ptr %6, align 8, !tbaa !12
  %16 = getelementptr inbounds nuw %"class.ncnn::DataReaderFromMemory", ptr %7, i32 0, i32 1
  %17 = load ptr, ptr %16, align 8, !tbaa !29
  %18 = getelementptr inbounds nuw %"class.ncnn::DataReaderFromMemoryPrivate", ptr %17, i32 0, i32 0
  %19 = load ptr, ptr %18, align 8, !tbaa !32
  %20 = load ptr, ptr %19, align 8, !tbaa !9
  %21 = getelementptr inbounds nuw i8, ptr %20, i64 %15
  store ptr %21, ptr %19, align 8, !tbaa !9
  %22 = load i64, ptr %6, align 8, !tbaa !12
  ret i64 %22
}