; Function Attrs: mustprogress nofree norecurse nosync nounwind willreturn memory(readwrite, inaccessiblemem: none) uwtable
define hidden noundef i64 @_ZNK4ncnn20DataReaderFromMemory4readEPvm(ptr noundef nonnull readonly align 8 captures(none) dereferenceable(16) %0, ptr noundef writeonly captures(none) %1, i64 noundef returned %2) unnamed_addr #4 align 2 {
  %4 = getelementptr inbounds nuw i8, ptr %0, i64 8
  %5 = load ptr, ptr %4, align 8, !tbaa !16
  %6 = load ptr, ptr %5, align 8, !tbaa !21
  %7 = load ptr, ptr %6, align 8, !tbaa !25
  tail call void @llvm.memcpy.p0.p0.i64(ptr align 1 %1, ptr align 1 %7, i64 %2, i1 false)
  %8 = load ptr, ptr %4, align 8, !tbaa !16
  %9 = load ptr, ptr %8, align 8, !tbaa !21
  %10 = load ptr, ptr %9, align 8, !tbaa !25
  %11 = getelementptr inbounds nuw i8, ptr %10, i64 %2
  store ptr %11, ptr %9, align 8, !tbaa !25
  ret i64 %2
}